; Function Attrs: mustprogress uwtable
define void @_ZN7mitsuba6Logger12log_progressEfRKNSt3__112basic_stringIcNS1_11char_traitsIcEENS1_9allocatorIcEEEES9_S9_PKv(ptr nocapture noundef nonnull readonly align 8 dereferenceable(24) %0, float noundef %1, ptr noundef nonnull align 8 dereferenceable(24) %2, ptr noundef nonnull align 8 dereferenceable(24) %3, ptr noundef nonnull align 8 dereferenceable(24) %4, ptr noundef %5) local_unnamed_addr #0 align 2 personality ptr @__gxx_personality_v0 {
  %7 = getelementptr inbounds i8, ptr %0, i64 16
  %8 = load ptr, ptr %7, align 8
  tail call void @_ZNSt3__15mutex4lockEv(ptr noundef nonnull align 8 dereferenceable(40) %8)
  %9 = load ptr, ptr %7, align 8
  %10 = getelementptr inbounds i8, ptr %9, i64 48
  %11 = load ptr, ptr %10, align 8
  %12 = getelementptr inbounds i8, ptr %9, i64 56
  %13 = load ptr, ptr %12, align 8
  %.not20 = icmp eq ptr %11, %13
  br i1 %.not20, label %._crit_edge, label %.lr.ph

.lr.ph:                                           ; preds = %6, %_ZN7mitsuba3refINS_8AppenderEED2Ev.exit
  %.sroa.015.021 = phi ptr [ %21, %_ZN7mitsuba3refINS_8AppenderEED2Ev.exit ], [ %11, %6 ]
  %14 = load ptr, ptr %.sroa.015.021, align 8
  %.not.i = icmp eq ptr %14, null
  br i1 %.not.i, label %_ZN7mitsuba3refINS_8AppenderEEC2ERKS2_.exit, label %15

15:                                               ; preds = %.lr.ph
  %16 = getelementptr inbounds i8, ptr %14, i64 8
  %17 = atomicrmw add ptr %16, i32 1 seq_cst, align 4
  br label %_ZN7mitsuba3refINS_8AppenderEEC2ERKS2_.exit

_ZN7mitsuba3refINS_8AppenderEEC2ERKS2_.exit:      ; preds = %.lr.ph, %15
  %18 = load ptr, ptr %14, align 8
  %19 = getelementptr inbounds i8, ptr %18, i64 80
  %20 = load ptr, ptr %19, align 8
  invoke void %20(ptr noundef nonnull align 8 dereferenceable(12) %14, float noundef %1, ptr noundef nonnull align 8 dereferenceable(24) %2, ptr noundef nonnull align 8 dereferenceable(24) %3, ptr noundef nonnull align 8 dereferenceable(24) %4, ptr noundef %5)
          to label %_ZN7mitsuba3refINS_8AppenderEED2Ev.exit unwind label %_ZN7mitsuba3refINS_8AppenderEED2Ev.exit11

_ZN7mitsuba3refINS_8AppenderEED2Ev.exit:          ; preds = %_ZN7mitsuba3refINS_8AppenderEEC2ERKS2_.exit
  tail call void @_ZNK7mitsuba6Object7dec_refEb(ptr noundef nonnull align 8 dereferenceable(12) %14, i1 noundef zeroext true) #21
  %21 = getelementptr inbounds i8, ptr %.sroa.015.021, i64 8
  %.not = icmp eq ptr %21, %13
  br i1 %.not, label %._crit_edge, label %.lr.ph

_ZN7mitsuba3refINS_8AppenderEED2Ev.exit11:        ; preds = %_ZN7mitsuba3refINS_8AppenderEEC2ERKS2_.exit
  %22 = landingpad { ptr, i32 }
          cleanup
  tail call void @_ZNK7mitsuba6Object7dec_refEb(ptr noundef nonnull align 8 dereferenceable(12) %14, i1 noundef zeroext true) #21
  tail call void @_ZNSt3__15mutex6unlockEv(ptr noundef nonnull align 8 dereferenceable(40) %8) #21
  resume { ptr, i32 } %22

._crit_edge:                                      ; preds = %_ZN7mitsuba3refINS_8AppenderEED2Ev.exit, %6
  tail call void @_ZNSt3__15mutex6unlockEv(ptr noundef nonnull align 8 dereferenceable(40) %8) #21
  ret void
}